target datalayout = "e-m:e-p270:32:32-p271:32:32-p272:64:64-i64:64-i128:128-f80:128-n8:16:32:64-S128"
target triple = "x86_64-pc-linux-gnu"

%struct.expert_field = type { i32, i32 }

@ei_reload_truncated_field = internal global %struct.expert_field zeroinitializer, align 4
@hf_reload_length_uint16 = internal global i32 0, align 4
@hf_reload_signature = internal global i32 0, align 4
@hf_reload_signatureandhashalgorithm = internal global i32 0, align 4
@hf_reload_hash_algorithm = internal global i32 0, align 4
@hf_reload_signeridentity_value_hash_alg = internal global i32 0, align 4
@hf_reload_signature_algorithm = internal global i32 0, align 4
@hf_reload_signeridentity = internal global i32 0, align 4
@hf_reload_signeridentity_identity = internal global i32 0, align 4
@hf_reload_signeridentity_type = internal global i32 0, align 4
@hf_reload_signeridentity_value = internal global i32 0, align 4
@hf_reload_signeridentity_value_certificate_hash = internal global i32 0, align 4
@hf_reload_signeridentity_value_certificate_node_id_hash = internal global i32 0, align 4
@hf_reload_signature_value = internal global i32 0, align 4
@ett_reload_signature = internal global i32 0, align 4
@ett_reload_signatureandhashalgorithm = internal global i32 0, align 4
@ett_reload_signeridentity = internal global i32 0, align 4
@ett_reload_signeridentity_identity = internal global i32 0, align 4
@ett_reload_signeridentity_value = internal global i32 0, align 4
@ei_reload_identity_type_unknown = internal global %struct.expert_field zeroinitializer, align 4
@.str.706 = private unnamed_addr constant [27 x i8] c" (SignerIdentityValue[%d])\00", align 1
@.str.707 = private unnamed_addr constant [35 x i8] c"Truncated signature identity value\00", align 1

; Function Attrs: null_pointer_is_valid sspstrong uwtable
define internal i32 @dissect_opaque(ptr noundef %0, ptr noundef %1, ptr noundef %2, i32 noundef %3, i16 noundef zeroext %4, i16 noundef zeroext %5, i32 noundef %6) #0 {
  %8 = alloca ptr, align 8
  %9 = alloca ptr, align 8
  %10 = alloca ptr, align 8
  %11 = alloca i32, align 4
  %12 = alloca i16, align 2
  %13 = alloca i16, align 2
  %14 = alloca i32, align 4
  store ptr %0, ptr %8, align 8
  store ptr %1, ptr %9, align 8
  store ptr %2, ptr %10, align 8
  store i32 %3, ptr %11, align 4
  store i16 %4, ptr %12, align 2
  store i16 %5, ptr %13, align 2
  store i32 %6, ptr %14, align 4
  %15 = load ptr, ptr %8, align 8
  %16 = load ptr, ptr %9, align 8
  %17 = load ptr, ptr %10, align 8
  %18 = load i32, ptr %11, align 4
  %19 = load i16, ptr %12, align 2
  %20 = load i16, ptr %13, align 2
  %21 = load i32, ptr %14, align 4
  %22 = call i32 @dissect_opaque_string_or_data(ptr noundef %15, ptr noundef %16, ptr noundef %17, i32 noundef %18, i16 noundef zeroext %19, i16 noundef zeroext %20, i32 noundef %21, i1 noundef zeroext false)
  ret i32 %22
}

; Function Attrs: null_pointer_is_valid sspstrong uwtable
define internal i32 @dissect_signature(ptr noundef %0, ptr noundef %1, ptr noundef %2, i16 noundef zeroext %3) #0 {
  %5 = alloca ptr, align 8
  %6 = alloca ptr, align 8
  %7 = alloca ptr, align 8
  %8 = alloca i16, align 2
  %9 = alloca i32, align 4
  %10 = alloca ptr, align 8
  %11 = alloca ptr, align 8
  %12 = alloca i16, align 2
  %13 = alloca i16, align 2
  %14 = alloca ptr, align 8
  %15 = alloca ptr, align 8
  %16 = alloca ptr, align 8
  %17 = alloca ptr, align 8
  %18 = alloca i8, align 1
  %19 = alloca ptr, align 8
  %20 = alloca ptr, align 8
  %21 = alloca ptr, align 8
  %22 = alloca ptr, align 8
  %23 = alloca i8, align 1
  store ptr %0, ptr %5, align 8
  store ptr %1, ptr %6, align 8
  store ptr %2, ptr %7, align 8
  store i16 %3, ptr %8, align 2
  call void @llvm.lifetime.start.p0(i64 4, ptr %9) #8
  store i32 0, ptr %9, align 4
  call void @llvm.lifetime.start.p0(i64 8, ptr %10) #8
  call void @llvm.lifetime.start.p0(i64 8, ptr %11) #8
  call void @llvm.lifetime.start.p0(i64 2, ptr %12) #8
  call void @llvm.lifetime.start.p0(i64 2, ptr %13) #8
  %24 = load ptr, ptr %5, align 8
  %25 = load i16, ptr %8, align 2
  %26 = zext i16 %25 to i32
  %27 = add i32 %26, 2
  %28 = add i32 %27, 1
  %29 = call zeroext i16 @tvb_get_ntohs(ptr noundef %24, i32 noundef %28)
  store i16 %29, ptr %12, align 2
  %30 = load ptr, ptr %5, align 8
  %31 = load i16, ptr %8, align 2
  %32 = zext i16 %31 to i32
  %33 = add i32 %32, 2
  %34 = add i32 %33, 1
  %35 = add i32 %34, 2
  %36 = load i16, ptr %12, align 2
  %37 = zext i16 %36 to i32
  %38 = add i32 %35, %37
  %39 = call zeroext i16 @tvb_get_ntohs(ptr noundef %30, i32 noundef %38)
  store i16 %39, ptr %13, align 2
  %40 = load ptr, ptr %7, align 8
  %41 = load i32, ptr @hf_reload_signature, align 4
  %42 = load ptr, ptr %5, align 8
  %43 = load i16, ptr %8, align 2
  %44 = zext i16 %43 to i32
  %45 = load i16, ptr %12, align 2
  %46 = zext i16 %45 to i32
  %47 = add i32 5, %46
  %48 = add i32 %47, 2
  %49 = load i16, ptr %13, align 2
  %50 = zext i16 %49 to i32
  %51 = add i32 %48, %50
  %52 = call ptr @proto_tree_add_item(ptr noundef %40, i32 noundef %41, ptr noundef %42, i32 noundef %44, i32 noundef %51, i32 noundef 0)
  store ptr %52, ptr %10, align 8
  %53 = load ptr, ptr %10, align 8
  %54 = load i32, ptr @ett_reload_signature, align 4
  %55 = call ptr @proto_item_add_subtree(ptr noundef %53, i32 noundef %54)
  store ptr %55, ptr %11, align 8
  call void @llvm.lifetime.start.p0(i64 8, ptr %14) #8
  call void @llvm.lifetime.start.p0(i64 8, ptr %15) #8
  %56 = load ptr, ptr %11, align 8
  %57 = load i32, ptr @hf_reload_signatureandhashalgorithm, align 4
  %58 = load ptr, ptr %5, align 8
  %59 = load i16, ptr %8, align 2
  %60 = zext i16 %59 to i32
  %61 = call ptr @proto_tree_add_item(ptr noundef %56, i32 noundef %57, ptr noundef %58, i32 noundef %60, i32 noundef 2, i32 noundef 0)
  store ptr %61, ptr %14, align 8
  %62 = load ptr, ptr %14, align 8
  %63 = load i32, ptr @ett_reload_signatureandhashalgorithm, align 4
  %64 = call ptr @proto_item_add_subtree(ptr noundef %62, i32 noundef %63)
  store ptr %64, ptr %15, align 8
  %65 = load ptr, ptr %15, align 8
  %66 = load i32, ptr @hf_reload_hash_algorithm, align 4
  %67 = load ptr, ptr %5, align 8
  %68 = load i16, ptr %8, align 2
  %69 = zext i16 %68 to i32
  %70 = call ptr @proto_tree_add_item(ptr noundef %65, i32 noundef %66, ptr noundef %67, i32 noundef %69, i32 noundef 1, i32 noundef 0)
  %71 = load i32, ptr %9, align 4
  %72 = add i32 %71, 1
  store i32 %72, ptr %9, align 4
  %73 = load ptr, ptr %15, align 8
  %74 = load i32, ptr @hf_reload_signature_algorithm, align 4
  %75 = load ptr, ptr %5, align 8
  %76 = load i16, ptr %8, align 2
  %77 = zext i16 %76 to i32
  %78 = load i32, ptr %9, align 4
  %79 = add i32 %77, %78
  %80 = call ptr @proto_tree_add_item(ptr noundef %73, i32 noundef %74, ptr noundef %75, i32 noundef %79, i32 noundef 1, i32 noundef 0)
  %81 = load i32, ptr %9, align 4
  %82 = add i32 %81, 1
  store i32 %82, ptr %9, align 4
  call void @llvm.lifetime.end.p0(i64 8, ptr %15) #8
  call void @llvm.lifetime.end.p0(i64 8, ptr %14) #8
  call void @llvm.lifetime.start.p0(i64 8, ptr %16) #8
  call void @llvm.lifetime.start.p0(i64 8, ptr %17) #8
  call void @llvm.lifetime.start.p0(i64 1, ptr %18) #8
  %83 = load ptr, ptr %11, align 8
  %84 = load i32, ptr @hf_reload_signeridentity, align 4
  %85 = load ptr, ptr %5, align 8
  %86 = load i16, ptr %8, align 2
  %87 = zext i16 %86 to i32
  %88 = load i32, ptr %9, align 4
  %89 = add i32 %87, %88
  %90 = load i16, ptr %12, align 2
  %91 = zext i16 %90 to i32
  %92 = add i32 3, %91
  %93 = call ptr @proto_tree_add_item(ptr noundef %83, i32 noundef %84, ptr noundef %85, i32 noundef %89, i32 noundef %92, i32 noundef 0)
  store ptr %93, ptr %16, align 8
  %94 = load ptr, ptr %16, align 8
  %95 = load i32, ptr @ett_reload_signeridentity, align 4
  %96 = call ptr @proto_item_add_subtree(ptr noundef %94, i32 noundef %95)
  store ptr %96, ptr %17, align 8
  %97 = load ptr, ptr %5, align 8
  %98 = load i16, ptr %8, align 2
  %99 = zext i16 %98 to i32
  %100 = load i32, ptr %9, align 4
  %101 = add i32 %99, %100
  %102 = call zeroext i8 @tvb_get_uint8(ptr noundef %97, i32 noundef %101)
  store i8 %102, ptr %18, align 1
  %103 = load ptr, ptr %17, align 8
  %104 = load i32, ptr @hf_reload_signeridentity_type, align 4
  %105 = load ptr, ptr %5, align 8
  %106 = load i16, ptr %8, align 2
  %107 = zext i16 %106 to i32
  %108 = load i32, ptr %9, align 4
  %109 = add i32 %107, %108
  %110 = call ptr @proto_tree_add_item(ptr noundef %103, i32 noundef %104, ptr noundef %105, i32 noundef %109, i32 noundef 1, i32 noundef 0)
  %111 = load i32, ptr %9, align 4
  %112 = add i32 %111, 1
  store i32 %112, ptr %9, align 4
  %113 = load ptr, ptr %17, align 8
  %114 = load i32, ptr @hf_reload_length_uint16, align 4
  %115 = load ptr, ptr %5, align 8
  %116 = load i16, ptr %8, align 2
  %117 = zext i16 %116 to i32
  %118 = load i32, ptr %9, align 4
  %119 = add i32 %117, %118
  %120 = load i16, ptr %12, align 2
  %121 = zext i16 %120 to i32
  %122 = call ptr @proto_tree_add_uint(ptr noundef %113, i32 noundef %114, ptr noundef %115, i32 noundef %119, i32 noundef 2, i32 noundef %121)
  %123 = load i32, ptr %9, align 4
  %124 = add i32 %123, 2
  store i32 %124, ptr %9, align 4
  call void @llvm.lifetime.start.p0(i64 8, ptr %19) #8
  call void @llvm.lifetime.start.p0(i64 8, ptr %20) #8
  %125 = load ptr, ptr %17, align 8
  %126 = load i32, ptr @hf_reload_signeridentity_identity, align 4
  %127 = load ptr, ptr %5, align 8
  %128 = load i16, ptr %8, align 2
  %129 = zext i16 %128 to i32
  %130 = load i32, ptr %9, align 4
  %131 = add i32 %129, %130
  %132 = load i16, ptr %12, align 2
  %133 = zext i16 %132 to i32
  %134 = call ptr @proto_tree_add_item(ptr noundef %125, i32 noundef %126, ptr noundef %127, i32 noundef %131, i32 noundef %133, i32 noundef 0)
  store ptr %134, ptr %19, align 8
  %135 = load ptr, ptr %19, align 8
  %136 = load i32, ptr @ett_reload_signeridentity_identity, align 4
  %137 = call ptr @proto_item_add_subtree(ptr noundef %135, i32 noundef %136)
  store ptr %137, ptr %20, align 8
  %138 = load ptr, ptr %19, align 8
  %139 = load i16, ptr %12, align 2
  %140 = zext i16 %139 to i32
  call void (ptr, ptr, ...) @proto_item_append_text(ptr noundef %138, ptr noundef @.str.706, i32 noundef %140)
  call void @llvm.lifetime.start.p0(i64 8, ptr %21) #8
  call void @llvm.lifetime.start.p0(i64 8, ptr %22) #8
  %141 = load i8, ptr %18, align 1
  %142 = zext i8 %141 to i32
  %143 = icmp eq i32 %142, 1
  br i1 %143, label %148, label %144

144:                                              ; preds = %4
  %145 = load i8, ptr %18, align 1
  %146 = zext i8 %145 to i32
  %147 = icmp eq i32 %146, 2
  br i1 %147, label %148, label %209

148:                                              ; preds = %144, %4
  call void @llvm.lifetime.start.p0(i64 1, ptr %23) #8
  %149 = load ptr, ptr %5, align 8
  %150 = load i16, ptr %8, align 2
  %151 = zext i16 %150 to i32
  %152 = load i32, ptr %9, align 4
  %153 = add i32 %151, %152
  %154 = add i32 %153, 1
  %155 = call zeroext i8 @tvb_get_uint8(ptr noundef %149, i32 noundef %154)
  store i8 %155, ptr %23, align 1
  %156 = load i8, ptr %23, align 1
  %157 = zext i8 %156 to i32
  %158 = add i32 2, %157
  %159 = load i16, ptr %12, align 2
  %160 = zext i16 %159 to i32
  %161 = icmp sgt i32 %158, %160
  br i1 %161, label %162, label %166

162:                                              ; preds = %148
  %163 = load ptr, ptr %6, align 8
  %164 = load ptr, ptr %16, align 8
  %165 = call ptr (ptr, ptr, ptr, ptr, ...) @expert_add_info_format(ptr noundef %163, ptr noundef %164, ptr noundef @ei_reload_truncated_field, ptr noundef @.str.707)
  br label %208

166:                                              ; preds = %148
  %167 = load ptr, ptr %20, align 8
  %168 = load i32, ptr @hf_reload_signeridentity_value, align 4
  %169 = load ptr, ptr %5, align 8
  %170 = load i16, ptr %8, align 2
  %171 = zext i16 %170 to i32
  %172 = load i32, ptr %9, align 4
  %173 = add i32 %171, %172
  %174 = load i8, ptr %23, align 1
  %175 = zext i8 %174 to i32
  %176 = add i32 2, %175
  %177 = call ptr @proto_tree_add_item(ptr noundef %167, i32 noundef %168, ptr noundef %169, i32 noundef %173, i32 noundef %176, i32 noundef 0)
  store ptr %177, ptr %21, align 8
  %178 = load ptr, ptr %21, align 8
  %179 = load i32, ptr @ett_reload_signeridentity_value, align 4
  %180 = call ptr @proto_item_add_subtree(ptr noundef %178, i32 noundef %179)
  store ptr %180, ptr %22, align 8
  %181 = load ptr, ptr %22, align 8
  %182 = load i32, ptr @hf_reload_signeridentity_value_hash_alg, align 4
  %183 = load ptr, ptr %5, align 8
  %184 = load i16, ptr %8, align 2
  %185 = zext i16 %184 to i32
  %186 = load i32, ptr %9, align 4
  %187 = add i32 %185, %186
  %188 = call ptr @proto_tree_add_item(ptr noundef %181, i32 noundef %182, ptr noundef %183, i32 noundef %187, i32 noundef 1, i32 noundef 0)
  %189 = load ptr, ptr %5, align 8
  %190 = load ptr, ptr %6, align 8
  %191 = load ptr, ptr %22, align 8
  %192 = load i8, ptr %18, align 1
  %193 = zext i8 %192 to i32
  %194 = icmp eq i32 %193, 1
  br i1 %194, label %195, label %197

195:                                              ; preds = %166
  %196 = load i32, ptr @hf_reload_signeridentity_value_certificate_hash, align 4
  br label %199

197:                                              ; preds = %166
  %198 = load i32, ptr @hf_reload_signeridentity_value_certificate_node_id_hash, align 4
  br label %199

199:                                              ; preds = %197, %195
  %200 = phi i32 [ %196, %195 ], [ %198, %197 ]
  %201 = load i16, ptr %8, align 2
  %202 = zext i16 %201 to i32
  %203 = load i32, ptr %9, align 4
  %204 = add i32 %202, %203
  %205 = add i32 %204, 1
  %206 = trunc i32 %205 to i16
  %207 = call i32 @dissect_opaque(ptr noundef %189, ptr noundef %190, ptr noundef %191, i32 noundef %200, i16 noundef zeroext %206, i16 noundef zeroext 1, i32 noundef -1)
  br label %208

208:                                              ; preds = %199, %162
  call void @llvm.lifetime.end.p0(i64 1, ptr %23) #8
  br label %213

209:                                              ; preds = %144
  %210 = load ptr, ptr %6, align 8
  %211 = load ptr, ptr %20, align 8
  %212 = call ptr @expert_add_info(ptr noundef %210, ptr noundef %211, ptr noundef @ei_reload_identity_type_unknown)
  br label %213

213:                                              ; preds = %209, %208
  call void @llvm.lifetime.end.p0(i64 8, ptr %22) #8
  call void @llvm.lifetime.end.p0(i64 8, ptr %21) #8
  call void @llvm.lifetime.end.p0(i64 8, ptr %20) #8
  call void @llvm.lifetime.end.p0(i64 8, ptr %19) #8
  %214 = load i16, ptr %12, align 2
  %215 = zext i16 %214 to i32
  %216 = load i32, ptr %9, align 4
  %217 = add i32 %216, %215
  store i32 %217, ptr %9, align 4
  call void @llvm.lifetime.end.p0(i64 1, ptr %18) #8
  call void @llvm.lifetime.end.p0(i64 8, ptr %17) #8
  call void @llvm.lifetime.end.p0(i64 8, ptr %16) #8
  %218 = load ptr, ptr %5, align 8
  %219 = load ptr, ptr %6, align 8
  %220 = load ptr, ptr %11, align 8
  %221 = load i32, ptr @hf_reload_signature_value, align 4
  %222 = load i16, ptr %8, align 2
  %223 = zext i16 %222 to i32
  %224 = load i32, ptr %9, align 4
  %225 = add i32 %223, %224
  %226 = trunc i32 %225 to i16
  %227 = call i32 @dissect_opaque(ptr noundef %218, ptr noundef %219, ptr noundef %220, i32 noundef %221, i16 noundef zeroext %226, i16 noundef zeroext 2, i32 noundef -1)
  %228 = load i32, ptr %9, align 4
  %229 = add i32 %228, %227
  store i32 %229, ptr %9, align 4
  %230 = load i32, ptr %9, align 4
  call void @llvm.lifetime.end.p0(i64 2, ptr %13) #8
  call void @llvm.lifetime.end.p0(i64 2, ptr %12) #8
  call void @llvm.lifetime.end.p0(i64 8, ptr %11) #8
  call void @llvm.lifetime.end.p0(i64 8, ptr %10) #8
  call void @llvm.lifetime.end.p0(i64 4, ptr %9) #8
  ret i32 %230
}