; Function Attrs: null_pointer_is_valid sspstrong uwtable
define internal fastcc void @dissect_signature(ptr noundef %0, ptr noundef %1, ptr noundef %2, i16 noundef zeroext %3) unnamed_addr #0 {
  %5 = zext i16 %3 to i32
  %6 = add nuw nsw i32 %5, 2
  %7 = add nuw nsw i32 %5, 3
  %8 = tail call zeroext i16 @tvb_get_ntohs(ptr noundef %0, i32 noundef %7)
  %9 = add nuw nsw i32 %5, 5
  %10 = zext i16 %8 to i32
  %11 = add nuw nsw i32 %9, %10
  %12 = tail call zeroext i16 @tvb_get_ntohs(ptr noundef %0, i32 noundef %11)
  %13 = load i32, ptr @hf_reload_signature, align 4
  %14 = add nuw nsw i32 %10, 7
  %15 = zext i16 %12 to i32
  %16 = add nuw nsw i32 %14, %15
  %17 = tail call ptr @proto_tree_add_item(ptr noundef %2, i32 noundef %13, ptr noundef %0, i32 noundef %5, i32 noundef %16, i32 noundef 0)
  %18 = load i32, ptr @ett_reload_signature, align 4
  %19 = tail call ptr @proto_item_add_subtree(ptr noundef %17, i32 noundef %18)
  %20 = load i32, ptr @hf_reload_signatureandhashalgorithm, align 4
  %21 = tail call ptr @proto_tree_add_item(ptr noundef %19, i32 noundef %20, ptr noundef %0, i32 noundef %5, i32 noundef 2, i32 noundef 0)
  %22 = load i32, ptr @ett_reload_signatureandhashalgorithm, align 4
  %23 = tail call ptr @proto_item_add_subtree(ptr noundef %21, i32 noundef %22)
  %24 = load i32, ptr @hf_reload_hash_algorithm, align 4
  %25 = tail call ptr @proto_tree_add_item(ptr noundef %23, i32 noundef %24, ptr noundef %0, i32 noundef %5, i32 noundef 1, i32 noundef 0)
  %26 = load i32, ptr @hf_reload_signature_algorithm, align 4
  %27 = add nuw nsw i32 %5, 1
  %28 = tail call ptr @proto_tree_add_item(ptr noundef %23, i32 noundef %26, ptr noundef %0, i32 noundef %27, i32 noundef 1, i32 noundef 0)
  %29 = load i32, ptr @hf_reload_signeridentity, align 4
  %30 = add nuw nsw i32 %10, 3
  %31 = tail call ptr @proto_tree_add_item(ptr noundef %19, i32 noundef %29, ptr noundef %0, i32 noundef %6, i32 noundef %30, i32 noundef 0)
  %32 = load i32, ptr @ett_reload_signeridentity, align 4
  %33 = tail call ptr @proto_item_add_subtree(ptr noundef %31, i32 noundef %32)
  %34 = tail call zeroext i8 @tvb_get_uint8(ptr noundef %0, i32 noundef %6)
  %35 = load i32, ptr @hf_reload_signeridentity_type, align 4
  %36 = tail call ptr @proto_tree_add_item(ptr noundef %33, i32 noundef %35, ptr noundef %0, i32 noundef %6, i32 noundef 1, i32 noundef 0)
  %37 = load i32, ptr @hf_reload_length_uint16, align 4
  %38 = tail call ptr @proto_tree_add_uint(ptr noundef %33, i32 noundef %37, ptr noundef %0, i32 noundef %7, i32 noundef 2, i32 noundef %10)
  %39 = load i32, ptr @hf_reload_signeridentity_identity, align 4
  %40 = tail call ptr @proto_tree_add_item(ptr noundef %33, i32 noundef %39, ptr noundef %0, i32 noundef %9, i32 noundef %10, i32 noundef 0)
  %41 = load i32, ptr @ett_reload_signeridentity_identity, align 4
  %42 = tail call ptr @proto_item_add_subtree(ptr noundef %40, i32 noundef %41)
  tail call void (ptr, ptr, ...) @proto_item_append_text(ptr noundef %40, ptr noundef nonnull @.str.706, i32 noundef %10)
  %43 = icmp eq i8 %34, 1
  %44 = add i8 %34, -1
  %or.cond = icmp ult i8 %44, 2
  br i1 %or.cond, label %45, label %65

45:                                               ; preds = %4
  %46 = add nuw nsw i32 %5, 6
  %47 = tail call zeroext i8 @tvb_get_uint8(ptr noundef %0, i32 noundef %46)
  %48 = zext i8 %47 to i32
  %49 = add nuw nsw i32 %48, 2
  %50 = icmp samesign ugt i32 %49, %10
  br i1 %50, label %51, label %53

51:                                               ; preds = %45
  %52 = tail call ptr (ptr, ptr, ptr, ptr, ...) @expert_add_info_format(ptr noundef %1, ptr noundef %31, ptr noundef nonnull @ei_reload_truncated_field, ptr noundef nonnull @.str.707)
  br label %67

53:                                               ; preds = %45
  %54 = load i32, ptr @hf_reload_signeridentity_value, align 4
  %55 = tail call ptr @proto_tree_add_item(ptr noundef %42, i32 noundef %54, ptr noundef %0, i32 noundef %9, i32 noundef %49, i32 noundef 0)
  %56 = load i32, ptr @ett_reload_signeridentity_value, align 4
  %57 = tail call ptr @proto_item_add_subtree(ptr noundef %55, i32 noundef %56)
  %58 = load i32, ptr @hf_reload_signeridentity_value_hash_alg, align 4
  %59 = tail call ptr @proto_tree_add_item(ptr noundef %57, i32 noundef %58, ptr noundef %0, i32 noundef %9, i32 noundef 1, i32 noundef 0)
  %60 = load i32, ptr @hf_reload_signeridentity_value_certificate_hash, align 4
  %61 = load i32, ptr @hf_reload_signeridentity_value_certificate_node_id_hash, align 4
  %62 = select i1 %43, i32 %60, i32 %61
  %63 = trunc i32 %46 to i16
  %64 = tail call fastcc i32 @dissect_opaque_string_or_data(ptr noundef %0, ptr noundef %1, ptr noundef %57, i32 noundef %62, i16 noundef zeroext %63, i16 noundef zeroext 1, i32 noundef -1, i1 noundef zeroext false)
  br label %67

65:                                               ; preds = %4
  %66 = tail call ptr @expert_add_info(ptr noundef %1, ptr noundef %42, ptr noundef nonnull @ei_reload_identity_type_unknown)
  br label %67

67:                                               ; preds = %51, %53, %65
  %68 = add i16 %8, 5
  %69 = load i32, ptr @hf_reload_signature_value, align 4
  %70 = add i16 %3, %68
  %71 = tail call fastcc i32 @dissect_opaque_string_or_data(ptr noundef %0, ptr noundef %1, ptr noundef %19, i32 noundef %69, i16 noundef zeroext %70, i16 noundef zeroext 2, i32 noundef -1, i1 noundef zeroext false)
  ret void
}